target datalayout = "e-m:e-p270:32:32-p271:32:32-p272:64:64-i64:64-i128:128-f80:128-n8:16:32:64-S128"
target triple = "x86_64-pc-linux-gnu"

%struct.WavPackEncodeContext = type { ptr, ptr, %struct.PutBitContext, i32, i32, i32, i32, i32, i32, [2 x ptr], [2 x i32], [18 x [2 x ptr]], [18 x [2 x i32]], [2 x [2 x ptr]], [2 x [2 x i32]], [2 x ptr], [2 x i32], ptr, ptr, i32, i32, ptr, ptr, i32, i32, i32, i32, i32, i32, i32, i32, i32, %struct.WavPackWords, i8, i8, i8, i8, i8, i8, i8, i8, i32, i32, i32, i32, i32, i32, i32, i32, i32, i32, i32, i32, i32, i32, [16 x %struct.Decorr], ptr, float }
%struct.PutBitContext = type { i32, i32, ptr, ptr, ptr }
%struct.WavPackWords = type { i32, i32, i32, i32, i32, [2 x %struct.WvChannel] }
%struct.WvChannel = type { [3 x i32], i32, i32, i32, i32 }
%struct.Decorr = type { i32, i32, i32, i32, [8 x i32], [8 x i32], i32, i32 }

; Function Attrs: nounwind uwtable
define internal i32 @allocate_buffers(ptr noundef %0) #1 {
  %2 = alloca i32, align 4
  %3 = alloca ptr, align 8
  %4 = alloca i32, align 4
  %5 = alloca i32, align 4
  store ptr %0, ptr %3, align 8, !tbaa !29
  call void @llvm.lifetime.start.p0(i64 4, ptr %4) #11
  store i32 0, ptr %4, align 4, !tbaa !39
  br label %6

6:                                                ; preds = %107, %1
  %7 = load i32, ptr %4, align 4, !tbaa !39
  %8 = icmp slt i32 %7, 2
  br i1 %8, label %9, label %110

9:                                                ; preds = %6
  %10 = load ptr, ptr %3, align 8, !tbaa !29
  %11 = getelementptr inbounds nuw %struct.WavPackEncodeContext, ptr %10, i32 0, i32 15
  %12 = getelementptr inbounds [2 x ptr], ptr %11, i64 0, i64 0
  %13 = load ptr, ptr %3, align 8, !tbaa !29
  %14 = getelementptr inbounds nuw %struct.WavPackEncodeContext, ptr %13, i32 0, i32 16
  %15 = getelementptr inbounds [2 x i32], ptr %14, i64 0, i64 0
  %16 = load ptr, ptr %3, align 8, !tbaa !29
  %17 = getelementptr inbounds nuw %struct.WavPackEncodeContext, ptr %16, i32 0, i32 3
  %18 = load i32, ptr %17, align 8, !tbaa !64
  %19 = mul nsw i32 %18, 4
  %20 = sext i32 %19 to i64
  call void @av_fast_padded_malloc(ptr noundef %12, ptr noundef %15, i64 noundef %20)
  %21 = load ptr, ptr %3, align 8, !tbaa !29
  %22 = getelementptr inbounds nuw %struct.WavPackEncodeContext, ptr %21, i32 0, i32 15
  %23 = getelementptr inbounds [2 x ptr], ptr %22, i64 0, i64 0
  %24 = load ptr, ptr %23, align 8, !tbaa !58
  %25 = icmp ne ptr %24, null
  br i1 %25, label %27, label %26

26:                                               ; preds = %9
  store i32 -12, ptr %2, align 4
  store i32 1, ptr %5, align 4
  br label %111

27:                                               ; preds = %9
  %28 = load ptr, ptr %3, align 8, !tbaa !29
  %29 = getelementptr inbounds nuw %struct.WavPackEncodeContext, ptr %28, i32 0, i32 13
  %30 = load i32, ptr %4, align 4, !tbaa !39
  %31 = sext i32 %30 to i64
  %32 = getelementptr inbounds [2 x [2 x ptr]], ptr %29, i64 0, i64 %31
  %33 = getelementptr inbounds [2 x ptr], ptr %32, i64 0, i64 0
  %34 = load ptr, ptr %3, align 8, !tbaa !29
  %35 = getelementptr inbounds nuw %struct.WavPackEncodeContext, ptr %34, i32 0, i32 14
  %36 = load i32, ptr %4, align 4, !tbaa !39
  %37 = sext i32 %36 to i64
  %38 = getelementptr inbounds [2 x [2 x i32]], ptr %35, i64 0, i64 %37
  %39 = getelementptr inbounds [2 x i32], ptr %38, i64 0, i64 0
  %40 = load ptr, ptr %3, align 8, !tbaa !29
  %41 = getelementptr inbounds nuw %struct.WavPackEncodeContext, ptr %40, i32 0, i32 3
  %42 = load i32, ptr %41, align 8, !tbaa !64
  %43 = mul nsw i32 %42, 4
  %44 = sext i32 %43 to i64
  call void @av_fast_padded_malloc(ptr noundef %33, ptr noundef %39, i64 noundef %44)
  %45 = load ptr, ptr %3, align 8, !tbaa !29
  %46 = getelementptr inbounds nuw %struct.WavPackEncodeContext, ptr %45, i32 0, i32 13
  %47 = load i32, ptr %4, align 4, !tbaa !39
  %48 = sext i32 %47 to i64
  %49 = getelementptr inbounds [2 x [2 x ptr]], ptr %46, i64 0, i64 %48
  %50 = getelementptr inbounds [2 x ptr], ptr %49, i64 0, i64 0
  %51 = load ptr, ptr %50, align 8, !tbaa !58
  %52 = icmp ne ptr %51, null
  br i1 %52, label %54, label %53

53:                                               ; preds = %27
  store i32 -12, ptr %2, align 4
  store i32 1, ptr %5, align 4
  br label %111

54:                                               ; preds = %27
  %55 = load ptr, ptr %3, align 8, !tbaa !29
  %56 = getelementptr inbounds nuw %struct.WavPackEncodeContext, ptr %55, i32 0, i32 30
  %57 = load i32, ptr %56, align 4, !tbaa !70
  %58 = and i32 %57, 1073741828
  %59 = icmp ne i32 %58, 0
  br i1 %59, label %106, label %60

60:                                               ; preds = %54
  %61 = load ptr, ptr %3, align 8, !tbaa !29
  %62 = getelementptr inbounds nuw %struct.WavPackEncodeContext, ptr %61, i32 0, i32 15
  %63 = getelementptr inbounds [2 x ptr], ptr %62, i64 0, i64 1
  %64 = load ptr, ptr %3, align 8, !tbaa !29
  %65 = getelementptr inbounds nuw %struct.WavPackEncodeContext, ptr %64, i32 0, i32 16
  %66 = getelementptr inbounds [2 x i32], ptr %65, i64 0, i64 1
  %67 = load ptr, ptr %3, align 8, !tbaa !29
  %68 = getelementptr inbounds nuw %struct.WavPackEncodeContext, ptr %67, i32 0, i32 3
  %69 = load i32, ptr %68, align 8, !tbaa !64
  %70 = mul nsw i32 %69, 4
  %71 = sext i32 %70 to i64
  call void @av_fast_padded_malloc(ptr noundef %63, ptr noundef %66, i64 noundef %71)
  %72 = load ptr, ptr %3, align 8, !tbaa !29
  %73 = getelementptr inbounds nuw %struct.WavPackEncodeContext, ptr %72, i32 0, i32 15
  %74 = getelementptr inbounds [2 x ptr], ptr %73, i64 0, i64 1
  %75 = load ptr, ptr %74, align 8, !tbaa !58
  %76 = icmp ne ptr %75, null
  br i1 %76, label %78, label %77

77:                                               ; preds = %60
  store i32 -12, ptr %2, align 4
  store i32 1, ptr %5, align 4
  br label %111

78:                                               ; preds = %60
  %79 = load ptr, ptr %3, align 8, !tbaa !29
  %80 = getelementptr inbounds nuw %struct.WavPackEncodeContext, ptr %79, i32 0, i32 13
  %81 = load i32, ptr %4, align 4, !tbaa !39
  %82 = sext i32 %81 to i64
  %83 = getelementptr inbounds [2 x [2 x ptr]], ptr %80, i64 0, i64 %82
  %84 = getelementptr inbounds [2 x ptr], ptr %83, i64 0, i64 1
  %85 = load ptr, ptr %3, align 8, !tbaa !29
  %86 = getelementptr inbounds nuw %struct.WavPackEncodeContext, ptr %85, i32 0, i32 14
  %87 = load i32, ptr %4, align 4, !tbaa !39
  %88 = sext i32 %87 to i64
  %89 = getelementptr inbounds [2 x [2 x i32]], ptr %86, i64 0, i64 %88
  %90 = getelementptr inbounds [2 x i32], ptr %89, i64 0, i64 1
  %91 = load ptr, ptr %3, align 8, !tbaa !29
  %92 = getelementptr inbounds nuw %struct.WavPackEncodeContext, ptr %91, i32 0, i32 3
  %93 = load i32, ptr %92, align 8, !tbaa !64
  %94 = mul nsw i32 %93, 4
  %95 = sext i32 %94 to i64
  call void @av_fast_padded_malloc(ptr noundef %84, ptr noundef %90, i64 noundef %95)
  %96 = load ptr, ptr %3, align 8, !tbaa !29
  %97 = getelementptr inbounds nuw %struct.WavPackEncodeContext, ptr %96, i32 0, i32 13
  %98 = load i32, ptr %4, align 4, !tbaa !39
  %99 = sext i32 %98 to i64
  %100 = getelementptr inbounds [2 x [2 x ptr]], ptr %97, i64 0, i64 %99
  %101 = getelementptr inbounds [2 x ptr], ptr %100, i64 0, i64 1
  %102 = load ptr, ptr %101, align 8, !tbaa !58
  %103 = icmp ne ptr %102, null
  br i1 %103, label %105, label %104

104:                                              ; preds = %78
  store i32 -12, ptr %2, align 4
  store i32 1, ptr %5, align 4
  br label %111

105:                                              ; preds = %78
  br label %106

106:                                              ; preds = %105, %54
  br label %107

107:                                              ; preds = %106
  %108 = load i32, ptr %4, align 4, !tbaa !39
  %109 = add nsw i32 %108, 1
  store i32 %109, ptr %4, align 4, !tbaa !39
  br label %6, !llvm.loop !218

110:                                              ; preds = %6
  store i32 0, ptr %2, align 4
  store i32 1, ptr %5, align 4
  br label %111

111:                                              ; preds = %110, %104, %77, %53, %26
  call void @llvm.lifetime.end.p0(i64 4, ptr %4) #11
  %112 = load i32, ptr %2, align 4
  ret i32 %112
}