; Function Attrs: nounwind uwtable
define internal fastcc range(i32 -12, 1) i32 @allocate_buffers(ptr noundef %0) unnamed_addr #1 {
  %2 = getelementptr inbounds nuw i8, ptr %0, i64 576
  %3 = getelementptr inbounds nuw i8, ptr %0, i64 592
  %4 = getelementptr inbounds nuw i8, ptr %0, i64 48
  %5 = getelementptr inbounds nuw i8, ptr %0, i64 528
  %6 = getelementptr inbounds nuw i8, ptr %0, i64 584
  %7 = getelementptr inbounds nuw i8, ptr %0, i64 596
  %8 = getelementptr inbounds nuw i8, ptr %0, i64 560
  %9 = getelementptr inbounds nuw i8, ptr %0, i64 668
  br label %10

10:                                               ; preds = %.backedge, %1
  %11 = phi i1 [ true, %1 ], [ false, %.backedge ]
  %indvars.iv = phi i64 [ 0, %1 ], [ 1, %.backedge ]
  %12 = load i32, ptr %4, align 8, !tbaa !53
  %13 = shl nsw i32 %12, 2
  %14 = sext i32 %13 to i64
  tail call void @av_fast_padded_malloc(ptr noundef nonnull %2, ptr noundef nonnull %3, i64 noundef %14) #15
  %15 = load ptr, ptr %2, align 8, !tbaa !54
  %.not = icmp eq ptr %15, null
  br i1 %.not, label %.split.loop.exit33, label %16

16:                                               ; preds = %10
  %17 = getelementptr inbounds nuw [2 x [2 x ptr]], ptr %5, i64 0, i64 %indvars.iv
  %18 = getelementptr inbounds nuw [2 x [2 x i32]], ptr %8, i64 0, i64 %indvars.iv
  %19 = load i32, ptr %4, align 8, !tbaa !53
  %20 = shl nsw i32 %19, 2
  %21 = sext i32 %20 to i64
  tail call void @av_fast_padded_malloc(ptr noundef nonnull %17, ptr noundef nonnull %18, i64 noundef %21) #15
  %22 = load ptr, ptr %17, align 8, !tbaa !54
  %.not26 = icmp eq ptr %22, null
  br i1 %.not26, label %.split.loop.exit33, label %23

23:                                               ; preds = %16
  %24 = load i32, ptr %9, align 4, !tbaa !60
  %25 = and i32 %24, 1073741828
  %.not27 = icmp eq i32 %25, 0
  br i1 %.not27, label %26, label %38

26:                                               ; preds = %23
  %27 = load i32, ptr %4, align 8, !tbaa !53
  %28 = shl nsw i32 %27, 2
  %29 = sext i32 %28 to i64
  tail call void @av_fast_padded_malloc(ptr noundef nonnull %6, ptr noundef nonnull %7, i64 noundef %29) #15
  %30 = load ptr, ptr %6, align 8, !tbaa !54
  %.not28 = icmp eq ptr %30, null
  br i1 %.not28, label %.split.loop.exit33, label %31

31:                                               ; preds = %26
  %32 = getelementptr inbounds nuw i8, ptr %17, i64 8
  %33 = getelementptr inbounds nuw i8, ptr %18, i64 4
  %34 = load i32, ptr %4, align 8, !tbaa !53
  %35 = shl nsw i32 %34, 2
  %36 = sext i32 %35 to i64
  tail call void @av_fast_padded_malloc(ptr noundef nonnull %32, ptr noundef nonnull %33, i64 noundef %36) #15
  %37 = load ptr, ptr %32, align 8, !tbaa !54
  %.not29 = icmp ne ptr %37, null
  %brmerge.not = and i1 %.not29, %11
  br i1 %brmerge.not, label %.backedge, label %.split.loop.exit

38:                                               ; preds = %23
  br i1 %11, label %.backedge, label %.split.loop.exit33

.backedge:                                        ; preds = %38, %31
  br label %10, !llvm.loop !211

.split.loop.exit:                                 ; preds = %31
  %.mux.le = select i1 %.not29, i32 0, i32 -12
  br label %.split.loop.exit33

.split.loop.exit33:                               ; preds = %10, %16, %26, %38, %.split.loop.exit
  %.025 = phi i32 [ %.mux.le, %.split.loop.exit ], [ 0, %38 ], [ -12, %26 ], [ -12, %16 ], [ -12, %10 ]
  ret i32 %.025
}